target datalayout = "e-m:e-p270:32:32-p271:32:32-p272:64:64-i64:64-i128:128-f80:128-n8:16:32:64-S128"
target triple = "x86_64-unknown-linux-gnu"

%"class.icu_75::MaybeStackArray" = type <{ ptr, i32, i8, [40 x i8], [3 x i8] }>
%"class.icu_75::StringPiece" = type <{ ptr, i32, [4 x i8] }>
%"class.icu_75::CharString" = type { %"class.icu_75::MaybeStackArray", i32, [4 x i8] }
%"class.icu_75::units::ConversionRates" = type { %"class.icu_75::MaybeStackVector" }
%"class.icu_75::MaybeStackVector" = type { %"class.icu_75::MemoryPool" }
%"class.icu_75::MemoryPool" = type { i32, %"class.icu_75::MaybeStackArray.0" }
%"class.icu_75::MaybeStackArray.0" = type { ptr, i32, i8, [8 x ptr] }
%"class.icu_75::units::ConversionRateInfo" = type { [8 x i8], %"class.icu_75::CharString", %"class.icu_75::CharString", %"class.icu_75::CharString", %"class.icu_75::CharString", %"class.icu_75::CharString" }

; Function Attrs: mustprogress nounwind uwtable
define linkonce_odr void @_ZN6icu_7511StringPieceC2EPKci(ptr noundef nonnull align 8 dereferenceable(12) %this, ptr noundef %offset, i32 noundef %len) unnamed_addr #0 comdat align 2 {
entry:
  %this.addr = alloca ptr, align 8
  %offset.addr = alloca ptr, align 8
  %len.addr = alloca i32, align 4
  store ptr %this, ptr %this.addr, align 8
  store ptr %offset, ptr %offset.addr, align 8
  store i32 %len, ptr %len.addr, align 4
  %this1 = load ptr, ptr %this.addr, align 8
  %ptr_ = getelementptr inbounds %"class.icu_75::StringPiece", ptr %this1, i32 0, i32 0
  %0 = load ptr, ptr %offset.addr, align 8
  store ptr %0, ptr %ptr_, align 8
  %length_ = getelementptr inbounds %"class.icu_75::StringPiece", ptr %this1, i32 0, i32 1
  %1 = load i32, ptr %len.addr, align 4
  store i32 %1, ptr %length_, align 8
  ret void
}

; Function Attrs: mustprogress nounwind uwtable
define weak_odr noundef ptr @_ZNK6icu_7515MaybeStackArrayIcLi40EE8getAliasEv(ptr noundef nonnull align 8 dereferenceable(53) %this) #0 comdat align 2 {
entry:
  %this.addr = alloca ptr, align 8
  store ptr %this, ptr %this.addr, align 8
  %this1 = load ptr, ptr %this.addr, align 8
  %ptr = getelementptr inbounds %"class.icu_75::MaybeStackArray", ptr %this1, i32 0, i32 0
  %0 = load ptr, ptr %ptr, align 8
  ret ptr %0
}

; Function Attrs: mustprogress nounwind uwtable
define linkonce_odr noundef nonnull align 8 dereferenceable(8) ptr @_ZNK6icu_7515MaybeStackArrayIPNS_5units18ConversionRateInfoELi8EEixEl(ptr noundef nonnull align 8 dereferenceable(80) %this, i64 noundef %i) #0 comdat align 2 {
entry:
  %this.addr = alloca ptr, align 8
  %i.addr = alloca i64, align 8
  store ptr %this, ptr %this.addr, align 8
  store i64 %i, ptr %i.addr, align 8
  %this1 = load ptr, ptr %this.addr, align 8
  %ptr = getelementptr inbounds %"class.icu_75::MaybeStackArray.0", ptr %this1, i32 0, i32 0
  %0 = load ptr, ptr %ptr, align 8
  %1 = load i64, ptr %i.addr, align 8
  %arrayidx = getelementptr inbounds ptr, ptr %0, i64 %1
  ret ptr %arrayidx
}

; Function Attrs: mustprogress uwtable
define linkonce_odr { ptr, i32 } @_ZNK6icu_7510CharString13toStringPieceEv(ptr noundef nonnull align 8 dereferenceable(60) %this) #1 comdat align 2 {
entry:
  %retval = alloca %"class.icu_75::StringPiece", align 8
  %this.addr = alloca ptr, align 8
  store ptr %this, ptr %this.addr, align 8
  %this1 = load ptr, ptr %this.addr, align 8
  %buffer = getelementptr inbounds %"class.icu_75::CharString", ptr %this1, i32 0, i32 0
  %call = call noundef ptr @_ZNK6icu_7515MaybeStackArrayIcLi40EE8getAliasEv(ptr noundef nonnull align 8 dereferenceable(53) %buffer)
  %len = getelementptr inbounds %"class.icu_75::CharString", ptr %this1, i32 0, i32 1
  %0 = load i32, ptr %len, align 8
  call void @_ZN6icu_7511StringPieceC2EPKci(ptr noundef nonnull align 8 dereferenceable(12) %retval, ptr noundef %call, i32 noundef %0)
  %1 = load { ptr, i32 }, ptr %retval, align 8
  ret { ptr, i32 } %1
}

; Function Attrs: mustprogress uwtable
define linkonce_odr noundef ptr @_ZNK6icu_7516MaybeStackVectorINS_5units18ConversionRateInfoELi8EEixEl(ptr noundef nonnull align 8 dereferenceable(88) %this, i64 noundef %i) #1 comdat align 2 {
entry:
  %this.addr = alloca ptr, align 8
  %i.addr = alloca i64, align 8
  store ptr %this, ptr %this.addr, align 8
  store i64 %i, ptr %i.addr, align 8
  %this1 = load ptr, ptr %this.addr, align 8
  %fPool = getelementptr inbounds %"class.icu_75::MemoryPool", ptr %this1, i32 0, i32 1
  %0 = load i64, ptr %i.addr, align 8
  %call = call noundef nonnull align 8 dereferenceable(8) ptr @_ZNK6icu_7515MaybeStackArrayIPNS_5units18ConversionRateInfoELi8EEixEl(ptr noundef nonnull align 8 dereferenceable(80) %fPool, i64 noundef %0)
  %1 = load ptr, ptr %call, align 8
  ret ptr %1
}

; Function Attrs: mustprogress nounwind uwtable
define linkonce_odr noundef i32 @_ZNK6icu_7516MaybeStackVectorINS_5units18ConversionRateInfoELi8EE6lengthEv(ptr noundef nonnull align 8 dereferenceable(88) %this) #0 comdat align 2 {
entry:
  %this.addr = alloca ptr, align 8
  store ptr %this, ptr %this.addr, align 8
  %this1 = load ptr, ptr %this.addr, align 8
  %fCount = getelementptr inbounds %"class.icu_75::MemoryPool", ptr %this1, i32 0, i32 0
  %0 = load i32, ptr %fCount, align 8
  ret i32 %0
}

; Function Attrs: mustprogress uwtable
define noundef ptr @_ZNK6icu_755units15ConversionRates21extractConversionInfoENS_11StringPieceER10UErrorCode(ptr noundef nonnull align 8 dereferenceable(88) %this, ptr %source.coerce0, i32 %source.coerce1, ptr noundef nonnull align 4 dereferenceable(4) %status) #1 align 2 {
entry:
  %retval = alloca ptr, align 8
  %source = alloca %"class.icu_75::StringPiece", align 8
  %this.addr = alloca ptr, align 8
  %status.addr = alloca ptr, align 8
  %i = alloca i64, align 8
  %n = alloca i64, align 8
  %ref.tmp = alloca %"class.icu_75::StringPiece", align 8
  %0 = getelementptr inbounds { ptr, i32 }, ptr %source, i32 0, i32 0
  store ptr %source.coerce0, ptr %0, align 8
  %1 = getelementptr inbounds { ptr, i32 }, ptr %source, i32 0, i32 1
  store i32 %source.coerce1, ptr %1, align 8
  store ptr %this, ptr %this.addr, align 8
  store ptr %status, ptr %status.addr, align 8
  %this1 = load ptr, ptr %this.addr, align 8
  store i64 0, ptr %i, align 8
  %conversionInfo_ = getelementptr inbounds %"class.icu_75::units::ConversionRates", ptr %this1, i32 0, i32 0
  %call = call noundef i32 @_ZNK6icu_7516MaybeStackVectorINS_5units18ConversionRateInfoELi8EE6lengthEv(ptr noundef nonnull align 8 dereferenceable(88) %conversionInfo_)
  %conv = sext i32 %call to i64
  store i64 %conv, ptr %n, align 8
  br label %for.cond

for.cond:                                         ; preds = %for.inc, %entry
  %2 = load i64, ptr %i, align 8
  %3 = load i64, ptr %n, align 8
  %cmp = icmp ult i64 %2, %3
  br i1 %cmp, label %for.body, label %for.end

for.body:                                         ; preds = %for.cond
  %conversionInfo_2 = getelementptr inbounds %"class.icu_75::units::ConversionRates", ptr %this1, i32 0, i32 0
  %4 = load i64, ptr %i, align 8
  %call3 = call noundef ptr @_ZNK6icu_7516MaybeStackVectorINS_5units18ConversionRateInfoELi8EEixEl(ptr noundef nonnull align 8 dereferenceable(88) %conversionInfo_2, i64 noundef %4)
  %sourceUnit = getelementptr inbounds %"class.icu_75::units::ConversionRateInfo", ptr %call3, i32 0, i32 1
  %call4 = call { ptr, i32 } @_ZNK6icu_7510CharString13toStringPieceEv(ptr noundef nonnull align 8 dereferenceable(60) %sourceUnit)
  %5 = getelementptr inbounds { ptr, i32 }, ptr %ref.tmp, i32 0, i32 0
  %6 = extractvalue { ptr, i32 } %call4, 0
  store ptr %6, ptr %5, align 8
  %7 = getelementptr inbounds { ptr, i32 }, ptr %ref.tmp, i32 0, i32 1
  %8 = extractvalue { ptr, i32 } %call4, 1
  store i32 %8, ptr %7, align 8
  %call5 = call noundef signext i8 @_ZN6icu_75eqERKNS_11StringPieceES2_(ptr noundef nonnull align 8 dereferenceable(12) %ref.tmp, ptr noundef nonnull align 8 dereferenceable(12) %source)
  %tobool = icmp ne i8 %call5, 0
  br i1 %tobool, label %if.then, label %if.end

if.then:                                          ; preds = %for.body
  %conversionInfo_6 = getelementptr inbounds %"class.icu_75::units::ConversionRates", ptr %this1, i32 0, i32 0
  %9 = load i64, ptr %i, align 8
  %call7 = call noundef ptr @_ZNK6icu_7516MaybeStackVectorINS_5units18ConversionRateInfoELi8EEixEl(ptr noundef nonnull align 8 dereferenceable(88) %conversionInfo_6, i64 noundef %9)
  store ptr %call7, ptr %retval, align 8
  br label %return

if.end:                                           ; preds = %for.body
  br label %for.inc

for.inc:                                          ; preds = %if.end
  %10 = load i64, ptr %i, align 8
  %inc = add i64 %10, 1
  store i64 %inc, ptr %i, align 8
  br label %for.cond, !llvm.loop !4

for.end:                                          ; preds = %for.cond
  %11 = load ptr, ptr %status.addr, align 8
  store i32 5, ptr %11, align 4
  store ptr null, ptr %retval, align 8
  br label %return

return:                                           ; preds = %for.end, %if.then
  %12 = load ptr, ptr %retval, align 8
  ret ptr %12
}