; Function Attrs: mustprogress uwtable
define noundef ptr @_ZNK6icu_755units15ConversionRates21extractConversionInfoENS_11StringPieceER10UErrorCode(ptr nocapture noundef nonnull readonly align 8 dereferenceable(88) %this, ptr %source.coerce0, i32 %source.coerce1, ptr nocapture noundef nonnull writeonly align 4 dereferenceable(4) %status) local_unnamed_addr #1 align 2 {
entry:
  %source = alloca %"class.icu_75::StringPiece", align 8
  %ref.tmp = alloca %"class.icu_75::StringPiece", align 8
  store ptr %source.coerce0, ptr %source, align 8
  %0 = getelementptr inbounds i8, ptr %source, i64 8
  store i32 %source.coerce1, ptr %0, align 8
  %1 = load i32, ptr %this, align 8
  %conv = sext i32 %1 to i64
  %cmp7.not = icmp eq i32 %1, 0
  br i1 %cmp7.not, label %for.end, label %for.body.lr.ph

for.body.lr.ph:                                   ; preds = %entry
  %fPool.i = getelementptr inbounds i8, ptr %this, i64 8
  %2 = getelementptr inbounds i8, ptr %ref.tmp, i64 8
  br label %for.body

for.body:                                         ; preds = %for.body.lr.ph, %for.inc
  %i.08 = phi i64 [ 0, %for.body.lr.ph ], [ %inc, %for.inc ]
  %3 = load ptr, ptr %fPool.i, align 8
  %arrayidx.i.i = getelementptr inbounds ptr, ptr %3, i64 %i.08
  %4 = load ptr, ptr %arrayidx.i.i, align 8
  %sourceUnit = getelementptr inbounds i8, ptr %4, i64 8
  %5 = load ptr, ptr %sourceUnit, align 8
  %len.i = getelementptr inbounds i8, ptr %4, i64 64
  %6 = load i32, ptr %len.i, align 8
  store ptr %5, ptr %ref.tmp, align 8
  store i32 %6, ptr %2, align 8
  %call5 = call noundef signext i8 @_ZN6icu_75eqERKNS_11StringPieceES2_(ptr noundef nonnull align 8 dereferenceable(12) %ref.tmp, ptr noundef nonnull align 8 dereferenceable(12) %source)
  %tobool.not = icmp eq i8 %call5, 0
  br i1 %tobool.not, label %for.inc, label %if.then

if.then:                                          ; preds = %for.body
  %7 = load ptr, ptr %fPool.i, align 8
  %arrayidx.i.i5 = getelementptr inbounds ptr, ptr %7, i64 %i.08
  %8 = load ptr, ptr %arrayidx.i.i5, align 8
  br label %return

for.inc:                                          ; preds = %for.body
  %inc = add nuw i64 %i.08, 1
  %exitcond.not = icmp eq i64 %inc, %conv
  br i1 %exitcond.not, label %for.end, label %for.body, !llvm.loop !4

for.end:                                          ; preds = %for.inc, %entry
  store i32 5, ptr %status, align 4
  br label %return

return:                                           ; preds = %for.end, %if.then
  %retval.0 = phi ptr [ %8, %if.then ], [ null, %for.end ]
  ret ptr %retval.0
}